target datalayout = "e-m:e-p270:32:32-p271:32:32-p272:64:64-i64:64-i128:128-f80:128-n8:16:32:64-S128"
target triple = "x86_64-unknown-linux-gnu"

%class.params_ref = type { ptr }
%"struct.std::atomic" = type { %"struct.std::__atomic_base" }
%"struct.std::__atomic_base" = type { i32 }
%struct.Z3_fixedpoint_ref = type { %"class.api::object", ptr, %class.params_ref }
%"class.api::object" = type { ptr, %"struct.std::atomic", i32, ptr }

@_ZTI12z3_exception = external constant ptr

; Function Attrs: mustprogress nounwind uwtable
define linkonce_odr hidden noundef ptr @_Z13to_fixedpointP14_Z3_fixedpoint(ptr noundef %s) #5 comdat {
entry:
  %s.addr = alloca ptr, align 8
  store ptr %s, ptr %s.addr, align 8
  %0 = load ptr, ptr %s.addr, align 8
  ret ptr %0
}

; Function Attrs: mustprogress nounwind uwtable
define linkonce_odr hidden noundef ptr @_Z4mk_cP11_Z3_context(ptr noundef %c) #5 comdat {
entry:
  %c.addr = alloca ptr, align 8
  store ptr %c, ptr %c.addr, align 8
  %0 = load ptr, ptr %c.addr, align 8
  ret ptr %0
}

; Function Attrs: mustprogress nounwind uwtable
define linkonce_odr hidden noundef ptr @_Z17to_fixedpoint_refP14_Z3_fixedpoint(ptr noundef %s) #5 comdat {
entry:
  %s.addr = alloca ptr, align 8
  store ptr %s, ptr %s.addr, align 8
  %0 = load ptr, ptr %s.addr, align 8
  %call = call noundef ptr @_Z13to_fixedpointP14_Z3_fixedpoint(ptr noundef %0)
  %m_datalog = getelementptr inbounds %struct.Z3_fixedpoint_ref, ptr %call, i32 0, i32 1
  %1 = load ptr, ptr %m_datalog, align 8
  ret ptr %1
}

; Function Attrs: mustprogress uwtable
define void @Z3_fixedpoint_init(ptr noundef %c, ptr noundef %d, ptr noundef %state) #4 personality ptr @__gxx_personality_v0 {
entry:
  %c.addr = alloca ptr, align 8
  %d.addr = alloca ptr, align 8
  %state.addr = alloca ptr, align 8
  %exn.slot = alloca ptr, align 8
  %ehselector.slot = alloca i32, align 4
  %ex = alloca ptr, align 8
  store ptr %c, ptr %c.addr, align 8
  store ptr %d, ptr %d.addr, align 8
  store ptr %state, ptr %state.addr, align 8
  %0 = load ptr, ptr %d.addr, align 8
  %call = invoke noundef ptr @_Z17to_fixedpoint_refP14_Z3_fixedpoint(ptr noundef %0)
          to label %invoke.cont unwind label %lpad

invoke.cont:                                      ; preds = %entry
  %1 = load ptr, ptr %state.addr, align 8
  invoke void @_ZN3api18fixedpoint_context9set_stateEPv(ptr noundef nonnull align 8 dereferenceable(3624) %call, ptr noundef %1)
          to label %invoke.cont1 unwind label %lpad

invoke.cont1:                                     ; preds = %invoke.cont
  br label %try.cont

lpad:                                             ; preds = %invoke.cont, %entry
  %2 = landingpad { ptr, i32 }
          catch ptr @_ZTI12z3_exception
  %3 = extractvalue { ptr, i32 } %2, 0
  store ptr %3, ptr %exn.slot, align 8
  %4 = extractvalue { ptr, i32 } %2, 1
  store i32 %4, ptr %ehselector.slot, align 4
  br label %catch.dispatch

catch.dispatch:                                   ; preds = %lpad
  %sel = load i32, ptr %ehselector.slot, align 4
  %5 = call i32 @llvm.eh.typeid.for(ptr @_ZTI12z3_exception) #3
  %matches = icmp eq i32 %sel, %5
  br i1 %matches, label %catch, label %eh.resume

catch:                                            ; preds = %catch.dispatch
  %exn = load ptr, ptr %exn.slot, align 8
  %6 = call ptr @__cxa_begin_catch(ptr %exn) #3
  store ptr %6, ptr %ex, align 8
  %7 = load ptr, ptr %c.addr, align 8
  %call4 = invoke noundef ptr @_Z4mk_cP11_Z3_context(ptr noundef %7)
          to label %invoke.cont3 unwind label %lpad2

invoke.cont3:                                     ; preds = %catch
  %8 = load ptr, ptr %ex, align 8
  invoke void @_ZN3api7context16handle_exceptionER12z3_exception(ptr noundef nonnull align 8 dereferenceable(3048) %call4, ptr noundef nonnull align 8 dereferenceable(8) %8)
          to label %invoke.cont5 unwind label %lpad2

invoke.cont5:                                     ; preds = %invoke.cont3
  call void @__cxa_end_catch()
  br label %try.cont

lpad2:                                            ; preds = %invoke.cont3, %catch
  %9 = landingpad { ptr, i32 }
          cleanup
  %10 = extractvalue { ptr, i32 } %9, 0
  store ptr %10, ptr %exn.slot, align 8
  %11 = extractvalue { ptr, i32 } %9, 1
  store i32 %11, ptr %ehselector.slot, align 4
  invoke void @__cxa_end_catch()
          to label %invoke.cont6 unwind label %terminate.lpad

invoke.cont6:                                     ; preds = %lpad2
  br label %eh.resume

try.cont:                                         ; preds = %invoke.cont5, %invoke.cont1
  ret void

eh.resume:                                        ; preds = %invoke.cont6, %catch.dispatch
  %exn7 = load ptr, ptr %exn.slot, align 8
  %sel8 = load i32, ptr %ehselector.slot, align 4
  %lpad.val = insertvalue { ptr, i32 } poison, ptr %exn7, 0
  %lpad.val9 = insertvalue { ptr, i32 } %lpad.val, i32 %sel8, 1
  resume { ptr, i32 } %lpad.val9

terminate.lpad:                                   ; preds = %lpad2
  %12 = landingpad { ptr, i32 }
          catch ptr null
  %13 = extractvalue { ptr, i32 } %12, 0
  call void @__clang_call_terminate(ptr %13) #14
  unreachable
}