; Function Attrs: mustprogress uwtable
define void @Z3_fixedpoint_init(ptr noundef %c, ptr nocapture noundef readonly %d, ptr noundef %state) local_unnamed_addr #3 personality ptr @__gxx_personality_v0 {
entry:
  %m_datalog.i = getelementptr inbounds i8, ptr %d, i64 24
  %0 = load ptr, ptr %m_datalog.i, align 8
  invoke void @_ZN3api18fixedpoint_context9set_stateEPv(ptr noundef nonnull align 8 dereferenceable(3624) %0, ptr noundef %state)
          to label %try.cont unwind label %lpad

lpad:                                             ; preds = %entry
  %1 = landingpad { ptr, i32 }
          catch ptr @_ZTI12z3_exception
  %2 = extractvalue { ptr, i32 } %1, 1
  %3 = tail call i32 @llvm.eh.typeid.for(ptr nonnull @_ZTI12z3_exception) #15
  %matches = icmp eq i32 %2, %3
  br i1 %matches, label %catch, label %eh.resume

catch:                                            ; preds = %lpad
  %4 = extractvalue { ptr, i32 } %1, 0
  %5 = tail call ptr @__cxa_begin_catch(ptr %4) #15
  invoke void @_ZN3api7context16handle_exceptionER12z3_exception(ptr noundef nonnull align 8 dereferenceable(3048) %c, ptr noundef nonnull align 8 dereferenceable(8) %5)
          to label %invoke.cont5 unwind label %lpad2

invoke.cont5:                                     ; preds = %catch
  tail call void @__cxa_end_catch()
  br label %try.cont

lpad2:                                            ; preds = %catch
  %6 = landingpad { ptr, i32 }
          cleanup
  invoke void @__cxa_end_catch()
          to label %eh.resume unwind label %terminate.lpad

try.cont:                                         ; preds = %entry, %invoke.cont5
  ret void

eh.resume:                                        ; preds = %lpad2, %lpad
  %lpad.val9.merged = phi { ptr, i32 } [ %6, %lpad2 ], [ %1, %lpad ]
  resume { ptr, i32 } %lpad.val9.merged

terminate.lpad:                                   ; preds = %lpad2
  %7 = landingpad { ptr, i32 }
          catch ptr null
  %8 = extractvalue { ptr, i32 } %7, 0
  tail call void @__clang_call_terminate(ptr %8) #16
  unreachable
}